; Function Attrs: mustprogress nofree norecurse nosync nounwind willreturn memory(read, inaccessiblemem: none) uwtable
define hidden noundef zeroext i1 @_ZNK3nla4core18is_canonical_monicEj(ptr noundef nonnull readonly align 8 captures(none) dereferenceable(4736) %0, i32 noundef %1) local_unnamed_addr #9 align 2 {
  %3 = getelementptr inbounds nuw i8, ptr %0, i64 4552
  %4 = load ptr, ptr %3, align 8, !tbaa !188
  %5 = zext i32 %1 to i64
  %6 = getelementptr inbounds nuw i32, ptr %4, i64 %5
  %7 = load i32, ptr %6, align 4, !tbaa !249
  %8 = getelementptr inbounds nuw i8, ptr %0, i64 4488
  %9 = load ptr, ptr %8, align 8, !tbaa !188
  %10 = icmp eq ptr %9, null
  br i1 %10, label %_ZNK3nla7emonics18is_canonical_monicEj.exit, label %_ZNK10union_findIN3nla7emonicsEE12get_num_varsEv.exit.i

_ZNK10union_findIN3nla7emonicsEE12get_num_varsEv.exit.i: ; preds = %2
  %11 = getelementptr inbounds i8, ptr %9, i64 -4
  %12 = load i32, ptr %11, align 4, !tbaa !249
  %.not.i = icmp ult i32 %7, %12
  br i1 %.not.i, label %.preheader.i, label %_ZNK3nla7emonics18is_canonical_monicEj.exit

.preheader.i:                                     ; preds = %_ZNK10union_findIN3nla7emonicsEE12get_num_varsEv.exit.i, %.preheader.i
  %.08.i.i = phi i32 [ %15, %.preheader.i ], [ %7, %_ZNK10union_findIN3nla7emonicsEE12get_num_varsEv.exit.i ]
  %13 = zext i32 %.08.i.i to i64
  %14 = getelementptr inbounds nuw i32, ptr %9, i64 %13
  %15 = load i32, ptr %14, align 4, !tbaa !249
  %.not.i.i = icmp eq i32 %15, %.08.i.i
  br i1 %.not.i.i, label %_ZNK10union_findIN3nla7emonicsEE4findEj.exit.i, label %.preheader.i

_ZNK10union_findIN3nla7emonicsEE4findEj.exit.i:   ; preds = %.preheader.i
  %16 = icmp eq i32 %.08.i.i, %7
  br label %_ZNK3nla7emonics18is_canonical_monicEj.exit

_ZNK3nla7emonics18is_canonical_monicEj.exit:      ; preds = %2, %_ZNK10union_findIN3nla7emonicsEE12get_num_varsEv.exit.i, %_ZNK10union_findIN3nla7emonicsEE4findEj.exit.i
  %.0.i = phi i1 [ %16, %_ZNK10union_findIN3nla7emonicsEE4findEj.exit.i ], [ true, %_ZNK10union_findIN3nla7emonicsEE12get_num_varsEv.exit.i ], [ true, %2 ]
  ret i1 %.0.i
}